; Function Attrs: mustprogress nofree norecurse nosync nounwind willreturn memory(read, inaccessiblemem: none) uwtable
define noundef double @_ZNK8QuantLib18AmericanPathPricer5stateERKNS_4PathEm(ptr nocapture noundef nonnull readonly align 8 dereferenceable(56) %this, ptr nocapture noundef nonnull readonly align 8 dereferenceable(88) %path, i64 noundef %t) unnamed_addr #10 align 2 {
entry:
  %values_.i = getelementptr inbounds nuw i8, ptr %path, i64 72
  %0 = load ptr, ptr %values_.i, align 8, !tbaa !28
  %arrayidx.i.i = getelementptr inbounds nuw double, ptr %0, i64 %t
  %1 = load double, ptr %arrayidx.i.i, align 8, !tbaa !55
  %scalingValue_ = getelementptr inbounds nuw i8, ptr %this, i64 8
  %2 = load double, ptr %scalingValue_, align 8, !tbaa !18
  %mul = fmul double %1, %2
  ret double %mul
}